target datalayout = "e-m:e-p270:32:32-p271:32:32-p272:64:64-i64:64-i128:128-f80:128-n8:16:32:64-S128"
target triple = "x86_64-pc-linux-gnu"

@hf_gsm_a_bssmap_max_nb_traffic_chan = internal global i32 0, align 4
@hf_gsm_a_bssmap_allowed_data_rate_bit8 = internal global i32 0, align 4
@hf_gsm_a_bssmap_allowed_data_rate_bit7 = internal global i32 0, align 4
@hf_gsm_a_bssmap_allowed_data_rate_bit6 = internal global i32 0, align 4
@hf_gsm_a_bssmap_allowed_data_rate_bit5 = internal global i32 0, align 4
@hf_gsm_a_bssmap_allowed_data_rate_bit4 = internal global i32 0, align 4
@hf_gsm_a_bssap_speech_codec = internal global i32 0, align 4

; Function Attrs: null_pointer_is_valid sspstrong uwtable
define internal zeroext i16 @be_geran_bsc_cont(ptr noundef %0, ptr noundef %1, ptr noundef %2, i32 noundef %3, i32 noundef %4, ptr noundef %5, i32 noundef %6) #1 {
  %8 = alloca i16, align 2
  %9 = alloca ptr, align 8
  %10 = alloca ptr, align 8
  %11 = alloca ptr, align 8
  %12 = alloca i32, align 4
  %13 = alloca i32, align 4
  %14 = alloca ptr, align 8
  %15 = alloca i32, align 4
  %16 = alloca i32, align 4
  %17 = alloca i32, align 4
  store ptr %0, ptr %9, align 8
  store ptr %1, ptr %10, align 8
  store ptr %2, ptr %11, align 8
  store i32 %3, ptr %12, align 4
  store i32 %4, ptr %13, align 4
  store ptr %5, ptr %14, align 8
  store i32 %6, ptr %15, align 4
  call void @llvm.lifetime.start.p0(i64 4, ptr %16) #5
  %18 = load i32, ptr %12, align 4
  store i32 %18, ptr %16, align 4
  %19 = load ptr, ptr %10, align 8
  %20 = load i32, ptr @hf_gsm_a_bssap_speech_codec, align 4
  %21 = load ptr, ptr %9, align 8
  %22 = load i32, ptr %16, align 4
  %23 = call ptr @proto_tree_add_item(ptr noundef %19, i32 noundef %20, ptr noundef %21, i32 noundef %22, i32 noundef 1, i32 noundef 0)
  %24 = load i32, ptr %16, align 4
  %25 = add i32 %24, 1
  store i32 %25, ptr %16, align 4
  %26 = load i32, ptr %13, align 4
  %27 = load i32, ptr %16, align 4
  %28 = load i32, ptr %12, align 4
  %29 = sub i32 %27, %28
  %30 = icmp ule i32 %26, %29
  br i1 %30, label %31, label %34

31:                                               ; preds = %7
  %32 = load i32, ptr %13, align 4
  %33 = trunc i32 %32 to i16
  store i16 %33, ptr %8, align 2
  store i32 1, ptr %17, align 4
  br label %67

34:                                               ; preds = %7
  %35 = load ptr, ptr %10, align 8
  %36 = load i32, ptr @hf_gsm_a_bssmap_allowed_data_rate_bit8, align 4
  %37 = load ptr, ptr %9, align 8
  %38 = load i32, ptr %16, align 4
  %39 = call ptr @proto_tree_add_item(ptr noundef %35, i32 noundef %36, ptr noundef %37, i32 noundef %38, i32 noundef 1, i32 noundef 0)
  %40 = load ptr, ptr %10, align 8
  %41 = load i32, ptr @hf_gsm_a_bssmap_allowed_data_rate_bit7, align 4
  %42 = load ptr, ptr %9, align 8
  %43 = load i32, ptr %16, align 4
  %44 = call ptr @proto_tree_add_item(ptr noundef %40, i32 noundef %41, ptr noundef %42, i32 noundef %43, i32 noundef 1, i32 noundef 0)
  %45 = load ptr, ptr %10, align 8
  %46 = load i32, ptr @hf_gsm_a_bssmap_allowed_data_rate_bit6, align 4
  %47 = load ptr, ptr %9, align 8
  %48 = load i32, ptr %16, align 4
  %49 = call ptr @proto_tree_add_item(ptr noundef %45, i32 noundef %46, ptr noundef %47, i32 noundef %48, i32 noundef 1, i32 noundef 0)
  %50 = load ptr, ptr %10, align 8
  %51 = load i32, ptr @hf_gsm_a_bssmap_allowed_data_rate_bit5, align 4
  %52 = load ptr, ptr %9, align 8
  %53 = load i32, ptr %16, align 4
  %54 = call ptr @proto_tree_add_item(ptr noundef %50, i32 noundef %51, ptr noundef %52, i32 noundef %53, i32 noundef 1, i32 noundef 0)
  %55 = load ptr, ptr %10, align 8
  %56 = load i32, ptr @hf_gsm_a_bssmap_allowed_data_rate_bit4, align 4
  %57 = load ptr, ptr %9, align 8
  %58 = load i32, ptr %16, align 4
  %59 = call ptr @proto_tree_add_item(ptr noundef %55, i32 noundef %56, ptr noundef %57, i32 noundef %58, i32 noundef 1, i32 noundef 0)
  %60 = load ptr, ptr %10, align 8
  %61 = load i32, ptr @hf_gsm_a_bssmap_max_nb_traffic_chan, align 4
  %62 = load ptr, ptr %9, align 8
  %63 = load i32, ptr %16, align 4
  %64 = call ptr @proto_tree_add_item(ptr noundef %60, i32 noundef %61, ptr noundef %62, i32 noundef %63, i32 noundef 1, i32 noundef 0)
  %65 = load i32, ptr %13, align 4
  %66 = trunc i32 %65 to i16
  store i16 %66, ptr %8, align 2
  store i32 1, ptr %17, align 4
  br label %67

67:                                               ; preds = %34, %31
  call void @llvm.lifetime.end.p0(i64 4, ptr %16) #5
  %68 = load i16, ptr %8, align 2
  ret i16 %68
}