; Function Attrs: null_pointer_is_valid sspstrong uwtable
define internal noundef zeroext i16 @be_geran_bsc_cont(ptr noundef %0, ptr noundef %1, ptr readnone captures(none) %2, i32 noundef %3, i32 noundef %4, ptr readnone captures(none) %5, i32 %6) #1 {
  %8 = load i32, ptr @hf_gsm_a_bssap_speech_codec, align 4
  %9 = tail call ptr @proto_tree_add_item(ptr noundef %1, i32 noundef %8, ptr noundef %0, i32 noundef %3, i32 noundef 1, i32 noundef 0)
  %10 = icmp ult i32 %4, 2
  br i1 %10, label %25, label %11

11:                                               ; preds = %7
  %12 = add i32 %3, 1
  %13 = load i32, ptr @hf_gsm_a_bssmap_allowed_data_rate_bit8, align 4
  %14 = tail call ptr @proto_tree_add_item(ptr noundef %1, i32 noundef %13, ptr noundef %0, i32 noundef %12, i32 noundef 1, i32 noundef 0)
  %15 = load i32, ptr @hf_gsm_a_bssmap_allowed_data_rate_bit7, align 4
  %16 = tail call ptr @proto_tree_add_item(ptr noundef %1, i32 noundef %15, ptr noundef %0, i32 noundef %12, i32 noundef 1, i32 noundef 0)
  %17 = load i32, ptr @hf_gsm_a_bssmap_allowed_data_rate_bit6, align 4
  %18 = tail call ptr @proto_tree_add_item(ptr noundef %1, i32 noundef %17, ptr noundef %0, i32 noundef %12, i32 noundef 1, i32 noundef 0)
  %19 = load i32, ptr @hf_gsm_a_bssmap_allowed_data_rate_bit5, align 4
  %20 = tail call ptr @proto_tree_add_item(ptr noundef %1, i32 noundef %19, ptr noundef %0, i32 noundef %12, i32 noundef 1, i32 noundef 0)
  %21 = load i32, ptr @hf_gsm_a_bssmap_allowed_data_rate_bit4, align 4
  %22 = tail call ptr @proto_tree_add_item(ptr noundef %1, i32 noundef %21, ptr noundef %0, i32 noundef %12, i32 noundef 1, i32 noundef 0)
  %23 = load i32, ptr @hf_gsm_a_bssmap_max_nb_traffic_chan, align 4
  %24 = tail call ptr @proto_tree_add_item(ptr noundef %1, i32 noundef %23, ptr noundef %0, i32 noundef %12, i32 noundef 1, i32 noundef 0)
  br label %25

25:                                               ; preds = %7, %11
  %.0 = trunc i32 %4 to i16
  ret i16 %.0
}